target datalayout = "e-m:e-p270:32:32-p271:32:32-p272:64:64-i64:64-i128:128-f80:128-n8:16:32:64-S128"
target triple = "x86_64-pc-linux-gnu"

%union.pthread_mutex_t = type { %struct.__pthread_mutex_s }
%struct.__pthread_mutex_s = type { i32, i32, i32, i32, i32, i16, i16, %struct.__pthread_internal_list }
%struct.__pthread_internal_list = type { ptr, ptr }
%struct.hostlist = type { i32, %union.pthread_mutex_t, i32, i32, i32, ptr, ptr }
%struct.hostrange_t = type { ptr, i64, i64, i32, i8 }

@.str.3 = private unnamed_addr constant [29 x i8] c"%s: pthread_mutex_lock(): %m\00", align 1
@__func__.hostlist_copy = private unnamed_addr constant [14 x i8] c"hostlist_copy\00", align 1
@.str.4 = private unnamed_addr constant [31 x i8] c"%s: pthread_mutex_unlock(): %m\00", align 1
@.str.7 = private unnamed_addr constant [11 x i8] c"hostlist.c\00", align 1
@__func__.hostrange_new = private unnamed_addr constant [14 x i8] c"hostrange_new\00", align 1
@__func__.hostlist_resize = private unnamed_addr constant [16 x i8] c"hostlist_resize\00", align 1

; Function Attrs: nounwind uwtable
define internal ptr @hostrange_new() #0 {
  %1 = call ptr @slurm_xcalloc(i64 noundef 1, i64 noundef 32, i1 noundef zeroext true, i1 noundef zeroext false, ptr noundef @.str.7, i32 noundef 563, ptr noundef @__func__.hostrange_new)
  ret ptr %1
}

; Function Attrs: nounwind uwtable
define internal ptr @hostrange_create(ptr noundef %0, i64 noundef %1, i64 noundef %2, i32 noundef %3) #0 {
  %5 = alloca ptr, align 8
  %6 = alloca i64, align 8
  %7 = alloca i64, align 8
  %8 = alloca i32, align 4
  %9 = alloca ptr, align 8
  store ptr %0, ptr %5, align 8
  store i64 %1, ptr %6, align 8
  store i64 %2, ptr %7, align 8
  store i32 %3, ptr %8, align 4
  call void @llvm.lifetime.start.p0(i64 8, ptr %9) #13
  %10 = call ptr @hostrange_new()
  store ptr %10, ptr %9, align 8
  %11 = load ptr, ptr %5, align 8
  %12 = call ptr @xstrdup(ptr noundef %11)
  %13 = load ptr, ptr %9, align 8
  %14 = getelementptr inbounds nuw %struct.hostrange_t, ptr %13, i32 0, i32 0
  store ptr %12, ptr %14, align 8
  %15 = load i64, ptr %6, align 8
  %16 = load ptr, ptr %9, align 8
  %17 = getelementptr inbounds nuw %struct.hostrange_t, ptr %16, i32 0, i32 1
  store i64 %15, ptr %17, align 8
  %18 = load i64, ptr %7, align 8
  %19 = load ptr, ptr %9, align 8
  %20 = getelementptr inbounds nuw %struct.hostrange_t, ptr %19, i32 0, i32 2
  store i64 %18, ptr %20, align 8
  %21 = load i32, ptr %8, align 4
  %22 = load ptr, ptr %9, align 8
  %23 = getelementptr inbounds nuw %struct.hostrange_t, ptr %22, i32 0, i32 3
  store i32 %21, ptr %23, align 8
  %24 = load ptr, ptr %9, align 8
  %25 = getelementptr inbounds nuw %struct.hostrange_t, ptr %24, i32 0, i32 4
  store i8 0, ptr %25, align 4
  %26 = load ptr, ptr %9, align 8
  call void @llvm.lifetime.end.p0(i64 8, ptr %9) #13
  ret ptr %26
}

; Function Attrs: nounwind uwtable
define internal ptr @hostrange_create_single(ptr noundef %0) #0 {
  %2 = alloca ptr, align 8
  %3 = alloca ptr, align 8
  store ptr %0, ptr %2, align 8
  call void @llvm.lifetime.start.p0(i64 8, ptr %3) #13
  %4 = call ptr @hostrange_new()
  store ptr %4, ptr %3, align 8
  %5 = load ptr, ptr %2, align 8
  %6 = call ptr @xstrdup(ptr noundef %5)
  %7 = load ptr, ptr %3, align 8
  %8 = getelementptr inbounds nuw %struct.hostrange_t, ptr %7, i32 0, i32 0
  store ptr %6, ptr %8, align 8
  %9 = load ptr, ptr %3, align 8
  %10 = getelementptr inbounds nuw %struct.hostrange_t, ptr %9, i32 0, i32 4
  store i8 1, ptr %10, align 4
  %11 = load ptr, ptr %3, align 8
  %12 = getelementptr inbounds nuw %struct.hostrange_t, ptr %11, i32 0, i32 1
  store i64 0, ptr %12, align 8
  %13 = load ptr, ptr %3, align 8
  %14 = getelementptr inbounds nuw %struct.hostrange_t, ptr %13, i32 0, i32 2
  store i64 0, ptr %14, align 8
  %15 = load ptr, ptr %3, align 8
  %16 = getelementptr inbounds nuw %struct.hostrange_t, ptr %15, i32 0, i32 3
  store i32 0, ptr %16, align 8
  %17 = load ptr, ptr %3, align 8
  call void @llvm.lifetime.end.p0(i64 8, ptr %3) #13
  ret ptr %17
}

; Function Attrs: nounwind uwtable
define internal ptr @hostrange_copy(ptr noundef %0) #0 {
  %2 = alloca ptr, align 8
  %3 = alloca ptr, align 8
  store ptr %0, ptr %3, align 8
  %4 = load ptr, ptr %3, align 8
  %5 = getelementptr inbounds nuw %struct.hostrange_t, ptr %4, i32 0, i32 4
  %6 = load i8, ptr %5, align 4, !range !12, !noundef !13
  %7 = trunc i8 %6 to i1
  br i1 %7, label %8, label %13

8:                                                ; preds = %1
  %9 = load ptr, ptr %3, align 8
  %10 = getelementptr inbounds nuw %struct.hostrange_t, ptr %9, i32 0, i32 0
  %11 = load ptr, ptr %10, align 8
  %12 = call ptr @hostrange_create_single(ptr noundef %11)
  store ptr %12, ptr %2, align 8
  br label %27

13:                                               ; preds = %1
  %14 = load ptr, ptr %3, align 8
  %15 = getelementptr inbounds nuw %struct.hostrange_t, ptr %14, i32 0, i32 0
  %16 = load ptr, ptr %15, align 8
  %17 = load ptr, ptr %3, align 8
  %18 = getelementptr inbounds nuw %struct.hostrange_t, ptr %17, i32 0, i32 1
  %19 = load i64, ptr %18, align 8
  %20 = load ptr, ptr %3, align 8
  %21 = getelementptr inbounds nuw %struct.hostrange_t, ptr %20, i32 0, i32 2
  %22 = load i64, ptr %21, align 8
  %23 = load ptr, ptr %3, align 8
  %24 = getelementptr inbounds nuw %struct.hostrange_t, ptr %23, i32 0, i32 3
  %25 = load i32, ptr %24, align 8
  %26 = call ptr @hostrange_create(ptr noundef %16, i64 noundef %19, i64 noundef %22, i32 noundef %25)
  store ptr %26, ptr %2, align 8
  br label %27

27:                                               ; preds = %13, %8
  %28 = load ptr, ptr %2, align 8
  ret ptr %28
}

; Function Attrs: nounwind uwtable
define internal void @hostlist_resize(ptr noundef %0, i64 noundef %1) #0 {
  %3 = alloca ptr, align 8
  %4 = alloca i64, align 8
  store ptr %0, ptr %3, align 8
  store i64 %1, ptr %4, align 8
  %5 = load i64, ptr %4, align 8
  %6 = trunc i64 %5 to i32
  %7 = load ptr, ptr %3, align 8
  %8 = getelementptr inbounds nuw %struct.hostlist, ptr %7, i32 0, i32 2
  store i32 %6, ptr %8, align 8
  %9 = load ptr, ptr %3, align 8
  %10 = getelementptr inbounds nuw %struct.hostlist, ptr %9, i32 0, i32 5
  %11 = load ptr, ptr %3, align 8
  %12 = getelementptr inbounds nuw %struct.hostlist, ptr %11, i32 0, i32 2
  %13 = load i32, ptr %12, align 8
  %14 = sext i32 %13 to i64
  %15 = call ptr @slurm_xrecalloc(ptr noundef %10, i64 noundef %14, i64 noundef 8, i1 noundef zeroext true, i1 noundef zeroext false, ptr noundef @.str.7, i32 noundef 1166, ptr noundef @__func__.hostlist_resize)
  ret void
}

; Function Attrs: nounwind uwtable
define dso_local ptr @hostlist_copy(ptr noundef %0) #0 {
  %2 = alloca ptr, align 8
  %3 = alloca ptr, align 8
  %4 = alloca i32, align 4
  %5 = alloca ptr, align 8
  %6 = alloca i32, align 4
  %7 = alloca i32, align 4
  %8 = alloca i32, align 4
  store ptr %0, ptr %3, align 8
  call void @llvm.lifetime.start.p0(i64 4, ptr %4) #13
  call void @llvm.lifetime.start.p0(i64 8, ptr %5) #13
  %9 = load ptr, ptr %3, align 8
  %10 = icmp ne ptr %9, null
  br i1 %10, label %12, label %11

11:                                               ; preds = %1
  store ptr null, ptr %2, align 8
  store i32 1, ptr %6, align 4
  br label %94

12:                                               ; preds = %1
  br label %13

13:                                               ; preds = %12
  br label %14

14:                                               ; preds = %13
  call void @llvm.lifetime.start.p0(i64 4, ptr %7) #13
  %15 = load ptr, ptr %3, align 8
  %16 = getelementptr inbounds nuw %struct.hostlist, ptr %15, i32 0, i32 1
  %17 = call i32 @pthread_mutex_lock(ptr noundef %16) #13
  store i32 %17, ptr %7, align 4
  %18 = load i32, ptr %7, align 4
  %19 = icmp ne i32 %18, 0
  br i1 %19, label %20, label %23

20:                                               ; preds = %14
  %21 = load i32, ptr %7, align 4
  %22 = call ptr @__errno_location() #14
  store i32 %21, ptr %22, align 4
  call void (ptr, ...) @fatal_abort(ptr noundef @.str.3, ptr noundef @__func__.hostlist_copy) #15
  unreachable

23:                                               ; preds = %14
  call void @llvm.lifetime.end.p0(i64 4, ptr %7) #13
  br label %24

24:                                               ; preds = %23
  br label %25

25:                                               ; preds = %24
  br label %26

26:                                               ; preds = %25
  br label %27

27:                                               ; preds = %26
  %28 = call ptr @hostlist_new()
  store ptr %28, ptr %5, align 8
  %29 = load ptr, ptr %3, align 8
  %30 = getelementptr inbounds nuw %struct.hostlist, ptr %29, i32 0, i32 3
  %31 = load i32, ptr %30, align 4
  %32 = load ptr, ptr %5, align 8
  %33 = getelementptr inbounds nuw %struct.hostlist, ptr %32, i32 0, i32 3
  store i32 %31, ptr %33, align 4
  %34 = load ptr, ptr %3, align 8
  %35 = getelementptr inbounds nuw %struct.hostlist, ptr %34, i32 0, i32 4
  %36 = load i32, ptr %35, align 8
  %37 = load ptr, ptr %5, align 8
  %38 = getelementptr inbounds nuw %struct.hostlist, ptr %37, i32 0, i32 4
  store i32 %36, ptr %38, align 8
  %39 = load ptr, ptr %5, align 8
  %40 = getelementptr inbounds nuw %struct.hostlist, ptr %39, i32 0, i32 3
  %41 = load i32, ptr %40, align 4
  %42 = load ptr, ptr %5, align 8
  %43 = getelementptr inbounds nuw %struct.hostlist, ptr %42, i32 0, i32 2
  %44 = load i32, ptr %43, align 8
  %45 = icmp sgt i32 %41, %44
  br i1 %45, label %46, label %52

46:                                               ; preds = %27
  %47 = load ptr, ptr %5, align 8
  %48 = load ptr, ptr %5, align 8
  %49 = getelementptr inbounds nuw %struct.hostlist, ptr %48, i32 0, i32 3
  %50 = load i32, ptr %49, align 4
  %51 = sext i32 %50 to i64
  call void @hostlist_resize(ptr noundef %47, i64 noundef %51)
  br label %52

52:                                               ; preds = %46, %27
  store i32 0, ptr %4, align 4
  br label %53

53:                                               ; preds = %74, %52
  %54 = load i32, ptr %4, align 4
  %55 = load ptr, ptr %3, align 8
  %56 = getelementptr inbounds nuw %struct.hostlist, ptr %55, i32 0, i32 3
  %57 = load i32, ptr %56, align 4
  %58 = icmp slt i32 %54, %57
  br i1 %58, label %59, label %77

59:                                               ; preds = %53
  %60 = load ptr, ptr %3, align 8
  %61 = getelementptr inbounds nuw %struct.hostlist, ptr %60, i32 0, i32 5
  %62 = load ptr, ptr %61, align 8
  %63 = load i32, ptr %4, align 4
  %64 = sext i32 %63 to i64
  %65 = getelementptr inbounds ptr, ptr %62, i64 %64
  %66 = load ptr, ptr %65, align 8
  %67 = call ptr @hostrange_copy(ptr noundef %66)
  %68 = load ptr, ptr %5, align 8
  %69 = getelementptr inbounds nuw %struct.hostlist, ptr %68, i32 0, i32 5
  %70 = load ptr, ptr %69, align 8
  %71 = load i32, ptr %4, align 4
  %72 = sext i32 %71 to i64
  %73 = getelementptr inbounds ptr, ptr %70, i64 %72
  store ptr %67, ptr %73, align 8
  br label %74

74:                                               ; preds = %59
  %75 = load i32, ptr %4, align 4
  %76 = add nsw i32 %75, 1
  store i32 %76, ptr %4, align 4
  br label %53, !llvm.loop !8

77:                                               ; preds = %53
  br label %78

78:                                               ; preds = %77
  br label %79

79:                                               ; preds = %78
  call void @llvm.lifetime.start.p0(i64 4, ptr %8) #13
  %80 = load ptr, ptr %3, align 8
  %81 = getelementptr inbounds nuw %struct.hostlist, ptr %80, i32 0, i32 1
  %82 = call i32 @pthread_mutex_unlock(ptr noundef %81) #13
  store i32 %82, ptr %8, align 4
  %83 = load i32, ptr %8, align 4
  %84 = icmp ne i32 %83, 0
  br i1 %84, label %85, label %88

85:                                               ; preds = %79
  %86 = load i32, ptr %8, align 4
  %87 = call ptr @__errno_location() #14
  store i32 %86, ptr %87, align 4
  call void (ptr, ...) @fatal_abort(ptr noundef @.str.4, ptr noundef @__func__.hostlist_copy) #15
  unreachable

88:                                               ; preds = %79
  call void @llvm.lifetime.end.p0(i64 4, ptr %8) #13
  br label %89

89:                                               ; preds = %88
  br label %90

90:                                               ; preds = %89
  br label %91

91:                                               ; preds = %90
  br label %92

92:                                               ; preds = %91
  %93 = load ptr, ptr %5, align 8
  store ptr %93, ptr %2, align 8
  store i32 1, ptr %6, align 4
  br label %94

94:                                               ; preds = %92, %11
  call void @llvm.lifetime.end.p0(i64 8, ptr %5) #13
  call void @llvm.lifetime.end.p0(i64 4, ptr %4) #13
  %95 = load ptr, ptr %2, align 8
  ret ptr %95
}