; Function Attrs: nounwind uwtable
define dso_local noundef ptr @hostlist_copy(ptr noundef %0) #0 {
  %.not = icmp eq ptr %0, null
  br i1 %.not, label %61, label %2

2:                                                ; preds = %1
  %3 = getelementptr inbounds nuw i8, ptr %0, i64 8
  %4 = tail call i32 @pthread_mutex_lock(ptr noundef nonnull %3) #22
  %.not28 = icmp eq i32 %4, 0
  br i1 %.not28, label %7, label %5

5:                                                ; preds = %2
  %6 = tail call ptr @__errno_location() #24
  store i32 %4, ptr %6, align 4
  tail call void (ptr, ...) @fatal_abort(ptr noundef nonnull @.str.3, ptr noundef nonnull @__func__.hostlist_copy) #25
  unreachable

7:                                                ; preds = %2
  %8 = tail call fastcc ptr @hostlist_new()
  %9 = getelementptr inbounds nuw i8, ptr %0, i64 52
  %10 = load i32, ptr %9, align 4
  %11 = getelementptr inbounds nuw i8, ptr %8, i64 52
  store i32 %10, ptr %11, align 4
  %12 = getelementptr inbounds nuw i8, ptr %0, i64 56
  %13 = load i32, ptr %12, align 8
  %14 = getelementptr inbounds nuw i8, ptr %8, i64 56
  store i32 %13, ptr %14, align 8
  %15 = getelementptr inbounds nuw i8, ptr %8, i64 48
  %16 = load i32, ptr %15, align 8
  %17 = icmp sgt i32 %10, %16
  br i1 %17, label %18, label %22

18:                                               ; preds = %7
  %19 = sext i32 %10 to i64
  store i32 %10, ptr %15, align 8
  %20 = getelementptr inbounds nuw i8, ptr %8, i64 64
  %21 = tail call ptr @slurm_xrecalloc(ptr noundef nonnull %20, i64 noundef range(i64 -2147483648, 2147483648) %19, i64 noundef 8, i1 noundef zeroext true, i1 noundef zeroext false, ptr noundef nonnull @.str.7, i32 noundef 1166, ptr noundef nonnull @__func__.hostlist_resize) #22
  br label %22

22:                                               ; preds = %18, %7
  %23 = load i32, ptr %9, align 4
  %24 = icmp sgt i32 %23, 0
  br i1 %24, label %.lr.ph, label %._crit_edge

.lr.ph:                                           ; preds = %22
  %25 = getelementptr inbounds nuw i8, ptr %0, i64 64
  %26 = getelementptr inbounds nuw i8, ptr %8, i64 64
  br label %27

27:                                               ; preds = %.lr.ph, %hostrange_copy.exit
  %indvars.iv = phi i64 [ 0, %.lr.ph ], [ %indvars.iv.next, %hostrange_copy.exit ]
  %28 = load ptr, ptr %25, align 8
  %29 = getelementptr inbounds nuw ptr, ptr %28, i64 %indvars.iv
  %30 = load ptr, ptr %29, align 8
  %31 = getelementptr inbounds nuw i8, ptr %30, i64 28
  %32 = load i8, ptr %31, align 4, !range !14, !noundef !15
  %33 = trunc nuw i8 %32 to i1
  %34 = load ptr, ptr %30, align 8
  br i1 %33, label %35, label %40

35:                                               ; preds = %27
  %36 = tail call ptr @slurm_xcalloc(i64 noundef 1, i64 noundef 32, i1 noundef zeroext true, i1 noundef zeroext false, ptr noundef nonnull @.str.7, i32 noundef 563, ptr noundef nonnull @__func__.hostrange_new) #22
  %37 = tail call ptr @xstrdup(ptr noundef %34) #22
  store ptr %37, ptr %36, align 8
  %38 = getelementptr inbounds nuw i8, ptr %36, i64 28
  store i8 1, ptr %38, align 4
  %39 = getelementptr inbounds nuw i8, ptr %36, i64 8
  tail call void @llvm.memset.p0.i64(ptr noundef nonnull align 8 dereferenceable(20) %39, i8 0, i64 20, i1 false)
  br label %hostrange_copy.exit

40:                                               ; preds = %27
  %41 = getelementptr inbounds nuw i8, ptr %30, i64 8
  %42 = load i64, ptr %41, align 8
  %43 = getelementptr inbounds nuw i8, ptr %30, i64 16
  %44 = load i64, ptr %43, align 8
  %45 = getelementptr inbounds nuw i8, ptr %30, i64 24
  %46 = load i32, ptr %45, align 8
  %47 = tail call ptr @slurm_xcalloc(i64 noundef 1, i64 noundef 32, i1 noundef zeroext true, i1 noundef zeroext false, ptr noundef nonnull @.str.7, i32 noundef 563, ptr noundef nonnull @__func__.hostrange_new) #22
  %48 = tail call ptr @xstrdup(ptr noundef %34) #22
  store ptr %48, ptr %47, align 8
  %49 = getelementptr inbounds nuw i8, ptr %47, i64 8
  store i64 %42, ptr %49, align 8
  %50 = getelementptr inbounds nuw i8, ptr %47, i64 16
  store i64 %44, ptr %50, align 8
  %51 = getelementptr inbounds nuw i8, ptr %47, i64 24
  store i32 %46, ptr %51, align 8
  %52 = getelementptr inbounds nuw i8, ptr %47, i64 28
  store i8 0, ptr %52, align 4
  br label %hostrange_copy.exit

hostrange_copy.exit:                              ; preds = %35, %40
  %.0.i = phi ptr [ %36, %35 ], [ %47, %40 ]
  %53 = load ptr, ptr %26, align 8
  %54 = getelementptr inbounds nuw ptr, ptr %53, i64 %indvars.iv
  store ptr %.0.i, ptr %54, align 8
  %indvars.iv.next = add nuw nsw i64 %indvars.iv, 1
  %55 = load i32, ptr %9, align 4
  %56 = sext i32 %55 to i64
  %57 = icmp slt i64 %indvars.iv.next, %56
  br i1 %57, label %27, label %._crit_edge, !llvm.loop !16

._crit_edge:                                      ; preds = %hostrange_copy.exit, %22
  %58 = tail call i32 @pthread_mutex_unlock(ptr noundef nonnull %3) #22
  %.not29 = icmp eq i32 %58, 0
  br i1 %.not29, label %61, label %59

59:                                               ; preds = %._crit_edge
  %60 = tail call ptr @__errno_location() #24
  store i32 %58, ptr %60, align 4
  tail call void (ptr, ...) @fatal_abort(ptr noundef nonnull @.str.4, ptr noundef nonnull @__func__.hostlist_copy) #25
  unreachable

61:                                               ; preds = %._crit_edge, %1
  %.0 = phi ptr [ null, %1 ], [ %8, %._crit_edge ]
  ret ptr %.0
}